target datalayout = "e-m:e-p270:32:32-p271:32:32-p272:64:64-i64:64-i128:128-f80:128-n8:16:32:64-S128"
target triple = "x86_64-pc-linux-gnu"

%struct.DdManager = type { %struct.DdNode, ptr, ptr, ptr, ptr, ptr, ptr, ptr, i32, i32, double, double, double, i32, i32, i32, i32, i32, i32, ptr, ptr, %struct.DdSubtable, i32, i32, i32, i32, i32, i32, i32, double, i32, i32, i32, ptr, i64, double, i32, ptr, ptr, ptr, ptr, ptr, ptr, ptr, i32, ptr, ptr, ptr, ptr, ptr, ptr, i32, i32, i32, double, i32, i32, i32, i32, double, double, i32, i32, i32, i32, i32, i32, i32, i32, i32, ptr, ptr, i32, i32, i32, i32, i32, i32, ptr, ptr, ptr, ptr, ptr, ptr, ptr, ptr, i32, i64, i64, i64, i32, i64, i64, double, double, double, double, double, double, i32, ptr, ptr, i64 }
%struct.DdNode = type { i32, i32, ptr, %union.anon, i64 }
%union.anon = type { %struct.DdChildren }
%struct.DdChildren = type { ptr, ptr }
%struct.DdSubtable = type { ptr, i32, i32, i32, i32, i32, i32, i32, i32, i32, i32, i32 }
%struct.Aig_Man_t_ = type { ptr, ptr, ptr, ptr, ptr, ptr, ptr, %struct.Aig_Obj_t_, i32, i32, i32, i32, i32, i32, [7 x i32], i32, ptr, i32, ptr, i32, ptr, i32, i32, i32, ptr, i32, i32, i32, i32, i32, ptr, ptr, i32, ptr, ptr, i32, ptr, ptr, i32, i32, i32, ptr, ptr, ptr, ptr, ptr, ptr, ptr, ptr, ptr, ptr, ptr, ptr, ptr, ptr, i32, ptr, ptr, ptr, ptr, i32, i64, i64, i64, ptr, ptr }
%struct.Aig_Obj_t_ = type { %union.anon.0, ptr, ptr, i64, i32, i32, %union.anon.1 }
%union.anon.0 = type { ptr }
%union.anon.1 = type { ptr }
%struct.Vec_Ptr_t_ = type { i32, i32, ptr }

; Function Attrs: inlinehint nounwind uwtable
define internal i32 @Saig_ManCiNum(ptr noundef %0) #5 {
  %2 = alloca ptr, align 8
  store ptr %0, ptr %2, align 8, !tbaa !43
  %3 = load ptr, ptr %2, align 8, !tbaa !43
  %4 = getelementptr inbounds nuw %struct.Aig_Man_t_, ptr %3, i32 0, i32 9
  %5 = load i32, ptr %4, align 4, !tbaa !64
  %6 = load ptr, ptr %2, align 8, !tbaa !43
  %7 = getelementptr inbounds nuw %struct.Aig_Man_t_, ptr %6, i32 0, i32 8
  %8 = load i32, ptr %7, align 8, !tbaa !59
  %9 = add nsw i32 %5, %8
  ret i32 %9
}

; Function Attrs: inlinehint nounwind uwtable
define internal ptr @Vec_PtrEntry(ptr noundef %0, i32 noundef %1) #5 {
  %3 = alloca ptr, align 8
  %4 = alloca i32, align 4
  store ptr %0, ptr %3, align 8, !tbaa !60
  store i32 %1, ptr %4, align 4, !tbaa !21
  %5 = load ptr, ptr %3, align 8, !tbaa !60
  %6 = getelementptr inbounds nuw %struct.Vec_Ptr_t_, ptr %5, i32 0, i32 2
  %7 = load ptr, ptr %6, align 8, !tbaa !61
  %8 = load i32, ptr %4, align 4, !tbaa !21
  %9 = sext i32 %8 to i64
  %10 = getelementptr inbounds ptr, ptr %7, i64 %9
  %11 = load ptr, ptr %10, align 8, !tbaa !63
  ret ptr %11
}

; Function Attrs: inlinehint nounwind uwtable
define internal i32 @Saig_ManPiNum(ptr noundef %0) #5 {
  %2 = alloca ptr, align 8
  store ptr %0, ptr %2, align 8, !tbaa !43
  %3 = load ptr, ptr %2, align 8, !tbaa !43
  %4 = getelementptr inbounds nuw %struct.Aig_Man_t_, ptr %3, i32 0, i32 9
  %5 = load i32, ptr %4, align 4, !tbaa !64
  ret i32 %5
}

; Function Attrs: inlinehint nounwind uwtable
define internal i32 @Saig_ManRegNum(ptr noundef %0) #5 {
  %2 = alloca ptr, align 8
  store ptr %0, ptr %2, align 8, !tbaa !43
  %3 = load ptr, ptr %2, align 8, !tbaa !43
  %4 = getelementptr inbounds nuw %struct.Aig_Man_t_, ptr %3, i32 0, i32 8
  %5 = load i32, ptr %4, align 8, !tbaa !59
  ret i32 %5
}

; Function Attrs: nounwind uwtable
define ptr @Aig_ManInitStateVarMap(ptr noundef %0, ptr noundef %1, i32 noundef %2) #0 {
  %4 = alloca ptr, align 8
  %5 = alloca ptr, align 8
  %6 = alloca i32, align 4
  %7 = alloca ptr, align 8
  %8 = alloca ptr, align 8
  %9 = alloca ptr, align 8
  %10 = alloca ptr, align 8
  %11 = alloca ptr, align 8
  %12 = alloca i32, align 4
  store ptr %0, ptr %4, align 8, !tbaa !19
  store ptr %1, ptr %5, align 8, !tbaa !43
  store i32 %2, ptr %6, align 4, !tbaa !21
  call void @llvm.lifetime.start.p0(i64 8, ptr %7) #10
  call void @llvm.lifetime.start.p0(i64 8, ptr %8) #10
  call void @llvm.lifetime.start.p0(i64 8, ptr %9) #10
  call void @llvm.lifetime.start.p0(i64 8, ptr %10) #10
  call void @llvm.lifetime.start.p0(i64 8, ptr %11) #10
  call void @llvm.lifetime.start.p0(i64 4, ptr %12) #10
  %13 = load ptr, ptr %4, align 8, !tbaa !19
  %14 = getelementptr inbounds nuw %struct.DdManager, ptr %13, i32 0, i32 15
  %15 = load i32, ptr %14, align 8, !tbaa !45
  %16 = sext i32 %15 to i64
  %17 = mul i64 8, %16
  %18 = call noalias ptr @malloc(i64 noundef %17) #11
  store ptr %18, ptr %7, align 8, !tbaa !46
  %19 = load ptr, ptr %4, align 8, !tbaa !19
  %20 = getelementptr inbounds nuw %struct.DdManager, ptr %19, i32 0, i32 15
  %21 = load i32, ptr %20, align 8, !tbaa !45
  %22 = sext i32 %21 to i64
  %23 = mul i64 8, %22
  %24 = call noalias ptr @malloc(i64 noundef %23) #11
  store ptr %24, ptr %8, align 8, !tbaa !46
  %25 = load ptr, ptr %4, align 8, !tbaa !19
  %26 = getelementptr inbounds nuw %struct.DdManager, ptr %25, i32 0, i32 1
  %27 = load ptr, ptr %26, align 8, !tbaa !22
  store ptr %27, ptr %10, align 8, !tbaa !39
  %28 = load ptr, ptr %10, align 8, !tbaa !39
  call void @Cudd_Ref(ptr noundef %28)
  store i32 0, ptr %12, align 4, !tbaa !21
  br label %29

29:                                               ; preds = %88, %3
  %30 = load i32, ptr %12, align 4, !tbaa !21
  %31 = load ptr, ptr %5, align 8, !tbaa !43
  %32 = call i32 @Saig_ManRegNum(ptr noundef %31)
  %33 = icmp slt i32 %30, %32
  br i1 %33, label %34, label %43

34:                                               ; preds = %29
  %35 = load ptr, ptr %5, align 8, !tbaa !43
  %36 = getelementptr inbounds nuw %struct.Aig_Man_t_, ptr %35, i32 0, i32 2
  %37 = load ptr, ptr %36, align 8, !tbaa !47
  %38 = load i32, ptr %12, align 4, !tbaa !21
  %39 = load ptr, ptr %5, align 8, !tbaa !43
  %40 = call i32 @Saig_ManPiNum(ptr noundef %39)
  %41 = add nsw i32 %38, %40
  %42 = call ptr @Vec_PtrEntry(ptr noundef %37, i32 noundef %41)
  store ptr %42, ptr %11, align 8, !tbaa !57
  br label %43

43:                                               ; preds = %34, %29
  %44 = phi i1 [ false, %29 ], [ true, %34 ]
  br i1 %44, label %45, label %91

45:                                               ; preds = %43
  %46 = load ptr, ptr %4, align 8, !tbaa !19
  %47 = getelementptr inbounds nuw %struct.DdManager, ptr %46, i32 0, i32 41
  %48 = load ptr, ptr %47, align 8, !tbaa !40
  %49 = load ptr, ptr %5, align 8, !tbaa !43
  %50 = call i32 @Saig_ManPiNum(ptr noundef %49)
  %51 = load i32, ptr %12, align 4, !tbaa !21
  %52 = add nsw i32 %50, %51
  %53 = sext i32 %52 to i64
  %54 = getelementptr inbounds ptr, ptr %48, i64 %53
  %55 = load ptr, ptr %54, align 8, !tbaa !39
  %56 = load ptr, ptr %7, align 8, !tbaa !46
  %57 = load i32, ptr %12, align 4, !tbaa !21
  %58 = sext i32 %57 to i64
  %59 = getelementptr inbounds ptr, ptr %56, i64 %58
  store ptr %55, ptr %59, align 8, !tbaa !39
  %60 = load ptr, ptr %4, align 8, !tbaa !19
  %61 = getelementptr inbounds nuw %struct.DdManager, ptr %60, i32 0, i32 41
  %62 = load ptr, ptr %61, align 8, !tbaa !40
  %63 = load ptr, ptr %5, align 8, !tbaa !43
  %64 = call i32 @Saig_ManCiNum(ptr noundef %63)
  %65 = load i32, ptr %12, align 4, !tbaa !21
  %66 = add nsw i32 %64, %65
  %67 = sext i32 %66 to i64
  %68 = getelementptr inbounds ptr, ptr %62, i64 %67
  %69 = load ptr, ptr %68, align 8, !tbaa !39
  %70 = load ptr, ptr %8, align 8, !tbaa !46
  %71 = load i32, ptr %12, align 4, !tbaa !21
  %72 = sext i32 %71 to i64
  %73 = getelementptr inbounds ptr, ptr %70, i64 %72
  store ptr %69, ptr %73, align 8, !tbaa !39
  %74 = load ptr, ptr %4, align 8, !tbaa !19
  %75 = load ptr, ptr %10, align 8, !tbaa !39
  store ptr %75, ptr %9, align 8, !tbaa !39
  %76 = load ptr, ptr %7, align 8, !tbaa !46
  %77 = load i32, ptr %12, align 4, !tbaa !21
  %78 = sext i32 %77 to i64
  %79 = getelementptr inbounds ptr, ptr %76, i64 %78
  %80 = load ptr, ptr %79, align 8, !tbaa !39
  %81 = ptrtoint ptr %80 to i64
  %82 = xor i64 %81, 1
  %83 = inttoptr i64 %82 to ptr
  %84 = call ptr @Cudd_bddAnd(ptr noundef %74, ptr noundef %75, ptr noundef %83)
  store ptr %84, ptr %10, align 8, !tbaa !39
  %85 = load ptr, ptr %10, align 8, !tbaa !39
  call void @Cudd_Ref(ptr noundef %85)
  %86 = load ptr, ptr %4, align 8, !tbaa !19
  %87 = load ptr, ptr %9, align 8, !tbaa !39
  call void @Cudd_RecursiveDeref(ptr noundef %86, ptr noundef %87)
  br label %88

88:                                               ; preds = %45
  %89 = load i32, ptr %12, align 4, !tbaa !21
  %90 = add nsw i32 %89, 1
  store i32 %90, ptr %12, align 4, !tbaa !21
  br label %29, !llvm.loop !58

91:                                               ; preds = %43
  %92 = load ptr, ptr %4, align 8, !tbaa !19
  %93 = load ptr, ptr %7, align 8, !tbaa !46
  %94 = load ptr, ptr %8, align 8, !tbaa !46
  %95 = load ptr, ptr %5, align 8, !tbaa !43
  %96 = call i32 @Saig_ManRegNum(ptr noundef %95)
  %97 = call i32 @Cudd_SetVarMap(ptr noundef %92, ptr noundef %93, ptr noundef %94, i32 noundef %96)
  %98 = load ptr, ptr %7, align 8, !tbaa !46
  %99 = icmp ne ptr %98, null
  br i1 %99, label %100, label %102

100:                                              ; preds = %91
  %101 = load ptr, ptr %7, align 8, !tbaa !46
  call void @free(ptr noundef %101) #10
  store ptr null, ptr %7, align 8, !tbaa !46
  br label %103

102:                                              ; preds = %91
  br label %103

103:                                              ; preds = %102, %100
  %104 = load ptr, ptr %8, align 8, !tbaa !46
  %105 = icmp ne ptr %104, null
  br i1 %105, label %106, label %108

106:                                              ; preds = %103
  %107 = load ptr, ptr %8, align 8, !tbaa !46
  call void @free(ptr noundef %107) #10
  store ptr null, ptr %8, align 8, !tbaa !46
  br label %109

108:                                              ; preds = %103
  br label %109

109:                                              ; preds = %108, %106
  %110 = load ptr, ptr %10, align 8, !tbaa !39
  call void @Cudd_Deref(ptr noundef %110)
  %111 = load ptr, ptr %10, align 8, !tbaa !39
  call void @llvm.lifetime.end.p0(i64 4, ptr %12) #10
  call void @llvm.lifetime.end.p0(i64 8, ptr %11) #10
  call void @llvm.lifetime.end.p0(i64 8, ptr %10) #10
  call void @llvm.lifetime.end.p0(i64 8, ptr %9) #10
  call void @llvm.lifetime.end.p0(i64 8, ptr %8) #10
  call void @llvm.lifetime.end.p0(i64 8, ptr %7) #10
  ret ptr %111
}