; Function Attrs: nounwind uwtable
define noundef ptr @Aig_ManInitStateVarMap(ptr noundef %0, ptr noundef readonly captures(none) %1, i32 %2) local_unnamed_addr #2 {
  %4 = getelementptr inbounds nuw i8, ptr %0, i64 136
  %5 = load i32, ptr %4, align 8, !tbaa !36
  %6 = sext i32 %5 to i64
  %7 = shl nsw i64 %6, 3
  %8 = tail call noalias ptr @malloc(i64 noundef %7) #16
  %9 = tail call noalias ptr @malloc(i64 noundef %7) #16
  %10 = getelementptr inbounds nuw i8, ptr %0, i64 40
  %11 = load ptr, ptr %10, align 8, !tbaa !14
  tail call void @Cudd_Ref(ptr noundef %11) #15
  %12 = getelementptr i8, ptr %1, i64 104
  %.val46 = load i32, ptr %12, align 8, !tbaa !37
  %13 = icmp sgt i32 %.val46, 0
  br i1 %13, label %.lr.ph, label %.critedge

.lr.ph:                                           ; preds = %3
  %14 = getelementptr i8, ptr %1, i64 108
  %15 = getelementptr inbounds nuw i8, ptr %0, i64 344
  br label %16

16:                                               ; preds = %.lr.ph, %16
  %indvars.iv = phi i64 [ 0, %.lr.ph ], [ %indvars.iv.next, %16 ]
  %.val49 = phi i32 [ %.val46, %.lr.ph ], [ %.val, %16 ]
  %.03647 = phi ptr [ %11, %.lr.ph ], [ %33, %16 ]
  %.val41 = load i32, ptr %14, align 4, !tbaa !48
  %17 = trunc nuw nsw i64 %indvars.iv to i32
  %18 = add nsw i32 %.val41, %17
  %19 = sext i32 %18 to i64
  %20 = load ptr, ptr %15, align 8, !tbaa !32
  %21 = getelementptr inbounds ptr, ptr %20, i64 %19
  %22 = load ptr, ptr %21, align 8, !tbaa !33
  %23 = getelementptr inbounds nuw ptr, ptr %8, i64 %indvars.iv
  store ptr %22, ptr %23, align 8, !tbaa !33
  %24 = add i32 %.val49, %17
  %25 = add i32 %24, %.val41
  %26 = sext i32 %25 to i64
  %27 = getelementptr inbounds ptr, ptr %20, i64 %26
  %28 = load ptr, ptr %27, align 8, !tbaa !33
  %29 = getelementptr inbounds nuw ptr, ptr %9, i64 %indvars.iv
  store ptr %28, ptr %29, align 8, !tbaa !33
  %30 = ptrtoint ptr %22 to i64
  %31 = xor i64 %30, 1
  %32 = inttoptr i64 %31 to ptr
  %33 = tail call ptr @Cudd_bddAnd(ptr noundef nonnull %0, ptr noundef %.03647, ptr noundef %32) #15
  tail call void @Cudd_Ref(ptr noundef %33) #15
  tail call void @Cudd_RecursiveDeref(ptr noundef nonnull %0, ptr noundef %.03647) #15
  %indvars.iv.next = add nuw nsw i64 %indvars.iv, 1
  %.val = load i32, ptr %12, align 8, !tbaa !37
  %34 = sext i32 %.val to i64
  %35 = icmp slt i64 %indvars.iv.next, %34
  br i1 %35, label %16, label %.critedge.thread, !llvm.loop !49

.critedge.thread:                                 ; preds = %16
  %36 = tail call i32 @Cudd_SetVarMap(ptr noundef nonnull %0, ptr noundef nonnull %8, ptr noundef nonnull %9, i32 noundef %.val) #15
  br label %38

.critedge:                                        ; preds = %3
  %37 = tail call i32 @Cudd_SetVarMap(ptr noundef nonnull %0, ptr noundef %8, ptr noundef %9, i32 noundef %.val46) #15
  %.not = icmp eq ptr %8, null
  br i1 %.not, label %39, label %38

38:                                               ; preds = %.critedge.thread, %.critedge
  %.036.lcssa56 = phi ptr [ %33, %.critedge.thread ], [ %11, %.critedge ]
  tail call void @free(ptr noundef nonnull %8) #15
  br label %39

39:                                               ; preds = %.critedge, %38
  %.036.lcssa57 = phi ptr [ %11, %.critedge ], [ %.036.lcssa56, %38 ]
  %.not39 = icmp eq ptr %9, null
  br i1 %.not39, label %41, label %40

40:                                               ; preds = %39
  tail call void @free(ptr noundef nonnull %9) #15
  br label %41

41:                                               ; preds = %39, %40
  tail call void @Cudd_Deref(ptr noundef %.036.lcssa57) #15
  ret ptr %.036.lcssa57
}